target datalayout = "e-m:e-p270:32:32-p271:32:32-p272:64:64-i64:64-i128:128-f80:128-n8:16:32:64-S128"
target triple = "x86_64-pc-linux-gnu"

%"class.llvm::cl::Option" = type { ptr, i16, i16, i16, i16, %"class.llvm::StringRef", %"class.llvm::StringRef", %"class.llvm::StringRef", %"class.llvm::SmallVector", %"class.llvm::SmallPtrSet" }
%"class.llvm::StringRef" = type { ptr, i64 }
%"class.llvm::SmallVector" = type { %"class.llvm::SmallVectorImpl", %"struct.llvm::SmallVectorStorage" }
%"class.llvm::SmallVectorImpl" = type { %"class.llvm::SmallVectorTemplateBase" }
%"class.llvm::SmallVectorTemplateBase" = type { %"class.llvm::SmallVectorTemplateCommon" }
%"class.llvm::SmallVectorTemplateCommon" = type { %"class.llvm::SmallVectorBase" }
%"class.llvm::SmallVectorBase" = type { ptr, i32, i32 }
%"struct.llvm::SmallVectorStorage" = type { [8 x i8] }
%"class.llvm::SmallPtrSet" = type { %"class.llvm::SmallPtrSetImpl.base", [1 x ptr] }
%"class.llvm::SmallPtrSetImpl.base" = type { %"class.llvm::SmallPtrSetImplBase.base" }
%"class.llvm::SmallPtrSetImplBase.base" = type <{ ptr, ptr, i32, i32, i32 }>
%"struct.llvm::cl::GenericOptionValue" = type { ptr }
%"class.std::_Function_base" = type { %"union.std::_Any_data", ptr }
%"union.std::_Any_data" = type { %"union.std::_Nocopy_types" }
%"union.std::_Nocopy_types" = type { { i64, i64 } }
%"class.llvm::cl::opt.261" = type { %"class.llvm::cl::Option", %"class.llvm::cl::opt_storage.262", %"class.llvm::RegisterPassParser", %"class.std::function.275" }
%"class.llvm::cl::opt_storage.262" = type { ptr, %"struct.llvm::cl::OptionValue.263" }
%"struct.llvm::cl::OptionValue.263" = type { %"struct.llvm::cl::OptionValueBase.base.267", [7 x i8] }
%"struct.llvm::cl::OptionValueBase.base.267" = type { %"class.llvm::cl::OptionValueCopy.base.266" }
%"class.llvm::cl::OptionValueCopy.base.266" = type <{ %"struct.llvm::cl::GenericOptionValue", ptr, i8 }>
%"class.llvm::RegisterPassParser" = type { %"class.llvm::MachinePassRegistryListener", %"class.llvm::cl::parser.269" }
%"class.llvm::MachinePassRegistryListener" = type { ptr }
%"class.llvm::cl::parser.269" = type { %"class.llvm::cl::generic_parser_base", %"class.llvm::SmallVector.270" }
%"class.llvm::cl::generic_parser_base" = type { ptr, ptr }
%"class.llvm::SmallVector.270" = type { %"class.llvm::SmallVectorImpl.271", %"struct.llvm::SmallVectorStorage.274" }
%"class.llvm::SmallVectorImpl.271" = type { %"class.llvm::SmallVectorTemplateBase.272" }
%"class.llvm::SmallVectorTemplateBase.272" = type { %"class.llvm::SmallVectorTemplateCommon.273" }
%"class.llvm::SmallVectorTemplateCommon.273" = type { %"class.llvm::SmallVectorBase" }
%"struct.llvm::SmallVectorStorage.274" = type { [448 x i8] }
%"class.std::function.275" = type { %"class.std::_Function_base", ptr }
%"class.llvm::cl::OptionValueCopy.265" = type <{ %"struct.llvm::cl::GenericOptionValue", ptr, i8, [7 x i8] }>

; Function Attrs: mustprogress nounwind uwtable
define linkonce_odr hidden void @_ZN4llvm2cl15OptionValueCopyIPFPNS_12FunctionPassEvEE8setValueERKS5_(ptr noundef nonnull align 8 dereferenceable(17) %0, ptr noundef nonnull align 8 dereferenceable(8) %1) #1 comdat align 2 {
  %3 = alloca ptr, align 8
  %4 = alloca ptr, align 8
  store ptr %0, ptr %3, align 8
  store ptr %1, ptr %4, align 8
  %5 = load ptr, ptr %3, align 8
  %6 = getelementptr inbounds nuw %"class.llvm::cl::OptionValueCopy.265", ptr %5, i32 0, i32 2
  store i8 1, ptr %6, align 8
  %7 = load ptr, ptr %4, align 8
  %8 = load ptr, ptr %7, align 8
  %9 = getelementptr inbounds nuw %"class.llvm::cl::OptionValueCopy.265", ptr %5, i32 0, i32 1
  store ptr %8, ptr %9, align 8
  ret void
}

; Function Attrs: mustprogress nounwind uwtable
define linkonce_odr hidden noundef zeroext i1 @_ZNKSt14_Function_base8_M_emptyEv(ptr noundef nonnull align 8 dereferenceable(24) %0) #1 comdat align 2 {
  %2 = alloca ptr, align 8
  store ptr %0, ptr %2, align 8
  %3 = load ptr, ptr %2, align 8
  %4 = getelementptr inbounds nuw %"class.std::_Function_base", ptr %3, i32 0, i32 1
  %5 = load ptr, ptr %4, align 8
  %6 = icmp ne ptr %5, null
  %7 = xor i1 %6, true
  ret i1 %7
}

; Function Attrs: mustprogress nounwind uwtable
define linkonce_odr hidden noundef nonnull align 8 dereferenceable(24) ptr @_ZN4llvm2cl11OptionValueIPFPNS_12FunctionPassEvEEaSIS5_EERS6_RKT_(ptr noundef nonnull align 8 dereferenceable(24) %0, ptr noundef nonnull align 8 dereferenceable(8) %1) #1 comdat align 2 {
  %3 = alloca ptr, align 8
  %4 = alloca ptr, align 8
  store ptr %0, ptr %3, align 8
  store ptr %1, ptr %4, align 8
  %5 = load ptr, ptr %3, align 8
  %6 = load ptr, ptr %4, align 8
  call void @_ZN4llvm2cl15OptionValueCopyIPFPNS_12FunctionPassEvEE8setValueERKS5_(ptr noundef nonnull align 8 dereferenceable(17) %5, ptr noundef nonnull align 8 dereferenceable(8) %6)
  ret ptr %5
}

; Function Attrs: mustprogress nounwind uwtable
define linkonce_odr hidden void @_ZNKSt8functionIFvRKPFPN4llvm12FunctionPassEvEEEclES6_(ptr noundef nonnull align 8 dereferenceable(32) %0, ptr noundef nonnull align 8 dereferenceable(8) %1) #1 comdat align 2 {
  %3 = alloca ptr, align 8
  %4 = alloca ptr, align 8
  store ptr %0, ptr %3, align 8
  store ptr %1, ptr %4, align 8
  %5 = load ptr, ptr %3, align 8
  %6 = call noundef zeroext i1 @_ZNKSt14_Function_base8_M_emptyEv(ptr noundef nonnull align 8 dereferenceable(24) %5)
  br i1 %6, label %7, label %8

7:                                                ; preds = %2
  call void @_ZSt25__throw_bad_function_callv() #15
  unreachable

8:                                                ; preds = %2
  %9 = getelementptr inbounds nuw %"class.std::function.275", ptr %5, i32 0, i32 1
  %10 = load ptr, ptr %9, align 8
  %11 = getelementptr inbounds nuw %"class.std::_Function_base", ptr %5, i32 0, i32 0
  %12 = load ptr, ptr %4, align 8
  call void %10(ptr noundef nonnull align 8 dereferenceable(16) %11, ptr noundef nonnull align 8 dereferenceable(8) %12)
  ret void
}

; Function Attrs: mustprogress nounwind uwtable
define linkonce_odr hidden void @_ZN4llvm2cl6Option11setPositionEj(ptr noundef nonnull align 8 dereferenceable(128) %0, i32 noundef %1) #1 comdat align 2 {
  %3 = alloca ptr, align 8
  %4 = alloca i32, align 4
  store ptr %0, ptr %3, align 8
  store i32 %1, ptr %4, align 4
  %5 = load ptr, ptr %3, align 8
  %6 = load i32, ptr %4, align 4
  %7 = trunc i32 %6 to i16
  %8 = getelementptr inbounds nuw %"class.llvm::cl::Option", ptr %5, i32 0, i32 3
  store i16 %7, ptr %8, align 4
  ret void
}

; Function Attrs: mustprogress nounwind uwtable
define linkonce_odr hidden void @_ZN4llvm2cl11opt_storageIPFPNS_12FunctionPassEvELb0ELb0EE8setValueIS5_EEvRKT_b(ptr noundef nonnull align 8 dereferenceable(32) %0, ptr noundef nonnull align 8 dereferenceable(8) %1, i1 noundef zeroext %2) #1 comdat align 2 {
  %4 = alloca ptr, align 8
  %5 = alloca ptr, align 8
  %6 = alloca i8, align 1
  store ptr %0, ptr %4, align 8
  store ptr %1, ptr %5, align 8
  %7 = zext i1 %2 to i8
  store i8 %7, ptr %6, align 1
  %8 = load ptr, ptr %4, align 8
  %9 = load ptr, ptr %5, align 8
  %10 = load ptr, ptr %9, align 8
  %11 = getelementptr inbounds nuw %"class.llvm::cl::opt_storage.262", ptr %8, i32 0, i32 0
  store ptr %10, ptr %11, align 8
  %12 = load i8, ptr %6, align 1
  %13 = trunc i8 %12 to i1
  br i1 %13, label %14, label %18

14:                                               ; preds = %3
  %15 = load ptr, ptr %5, align 8
  %16 = getelementptr inbounds nuw %"class.llvm::cl::opt_storage.262", ptr %8, i32 0, i32 1
  %17 = call noundef nonnull align 8 dereferenceable(24) ptr @_ZN4llvm2cl11OptionValueIPFPNS_12FunctionPassEvEEaSIS5_EERS6_RKT_(ptr noundef nonnull align 8 dereferenceable(24) %16, ptr noundef nonnull align 8 dereferenceable(8) %15)
  br label %18

18:                                               ; preds = %14, %3
  ret void
}

; Function Attrs: mustprogress nounwind uwtable
define internal noundef zeroext i1 @_ZN4llvm2cl3optIPFPNS_12FunctionPassEvELb0ENS_18RegisterPassParserIN12_GLOBAL__N_119RVVRegisterRegAllocEEEE16handleOccurrenceEjNS_9StringRefESB_(ptr noundef nonnull align 8 dereferenceable(680) %0, i32 noundef %1, ptr %2, i64 %3, ptr %4, i64 %5) unnamed_addr #1 align 2 {
  %7 = alloca i1, align 1
  %8 = alloca %"class.llvm::StringRef", align 8
  %9 = alloca %"class.llvm::StringRef", align 8
  %10 = alloca ptr, align 8
  %11 = alloca i32, align 4
  %12 = alloca ptr, align 8
  %13 = alloca %"class.llvm::StringRef", align 8
  %14 = alloca %"class.llvm::StringRef", align 8
  %15 = getelementptr inbounds nuw { ptr, i64 }, ptr %8, i32 0, i32 0
  store ptr %2, ptr %15, align 8
  %16 = getelementptr inbounds nuw { ptr, i64 }, ptr %8, i32 0, i32 1
  store i64 %3, ptr %16, align 8
  %17 = getelementptr inbounds nuw { ptr, i64 }, ptr %9, i32 0, i32 0
  store ptr %4, ptr %17, align 8
  %18 = getelementptr inbounds nuw { ptr, i64 }, ptr %9, i32 0, i32 1
  store i64 %5, ptr %18, align 8
  store ptr %0, ptr %10, align 8
  store i32 %1, ptr %11, align 4
  %19 = load ptr, ptr %10, align 8
  store ptr null, ptr %12, align 8
  %20 = getelementptr inbounds nuw %"class.llvm::cl::opt.261", ptr %19, i32 0, i32 2
  %21 = getelementptr inbounds i8, ptr %20, i64 8
  call void @llvm.memcpy.p0.p0.i64(ptr align 8 %13, ptr align 8 %8, i64 16, i1 false)
  call void @llvm.memcpy.p0.p0.i64(ptr align 8 %14, ptr align 8 %9, i64 16, i1 false)
  %22 = getelementptr inbounds nuw { ptr, i64 }, ptr %13, i32 0, i32 0
  %23 = load ptr, ptr %22, align 8
  %24 = getelementptr inbounds nuw { ptr, i64 }, ptr %13, i32 0, i32 1
  %25 = load i64, ptr %24, align 8
  %26 = getelementptr inbounds nuw { ptr, i64 }, ptr %14, i32 0, i32 0
  %27 = load ptr, ptr %26, align 8
  %28 = getelementptr inbounds nuw { ptr, i64 }, ptr %14, i32 0, i32 1
  %29 = load i64, ptr %28, align 8
  %30 = call noundef zeroext i1 @_ZN4llvm2cl6parserIPFPNS_12FunctionPassEvEE5parseERNS0_6OptionENS_9StringRefES9_RS5_(ptr noundef nonnull align 8 dereferenceable(480) %21, ptr noundef nonnull align 8 dereferenceable(128) %19, ptr %23, i64 %25, ptr %27, i64 %29, ptr noundef nonnull align 8 dereferenceable(8) %12)
  br i1 %30, label %31, label %32

31:                                               ; preds = %6
  store i1 true, ptr %7, align 1
  br label %36

32:                                               ; preds = %6
  %33 = getelementptr inbounds i8, ptr %19, i64 128
  call void @_ZN4llvm2cl11opt_storageIPFPNS_12FunctionPassEvELb0ELb0EE8setValueIS5_EEvRKT_b(ptr noundef nonnull align 8 dereferenceable(32) %33, ptr noundef nonnull align 8 dereferenceable(8) %12, i1 noundef zeroext false)
  %34 = load i32, ptr %11, align 4
  call void @_ZN4llvm2cl6Option11setPositionEj(ptr noundef nonnull align 8 dereferenceable(128) %19, i32 noundef %34)
  %35 = getelementptr inbounds nuw %"class.llvm::cl::opt.261", ptr %19, i32 0, i32 3
  call void @_ZNKSt8functionIFvRKPFPN4llvm12FunctionPassEvEEEclES6_(ptr noundef nonnull align 8 dereferenceable(32) %35, ptr noundef nonnull align 8 dereferenceable(8) %12)
  store i1 false, ptr %7, align 1
  br label %36

36:                                               ; preds = %32, %31
  %37 = load i1, ptr %7, align 1
  ret i1 %37
}