; Function Attrs: mustprogress nounwind uwtable
define internal noundef zeroext i1 @_ZN4llvm2cl3optIPFPNS_12FunctionPassEvELb0ENS_18RegisterPassParserIN12_GLOBAL__N_119RVVRegisterRegAllocEEEE16handleOccurrenceEjNS_9StringRefESB_(ptr noundef nonnull align 8 dereferenceable(680) %0, i32 noundef %1, ptr %2, i64 %3, ptr %4, i64 %5) unnamed_addr #0 align 2 {
  %7 = alloca ptr, align 8
  store ptr null, ptr %7, align 8
  %8 = getelementptr inbounds i8, ptr %0, i64 168
  %9 = call noundef zeroext i1 @_ZN4llvm2cl6parserIPFPNS_12FunctionPassEvEE5parseERNS0_6OptionENS_9StringRefES9_RS5_(ptr noundef nonnull align 8 dereferenceable(480) %8, ptr noundef nonnull align 8 dereferenceable(128) %0, ptr %2, i64 %3, ptr %4, i64 %5, ptr noundef nonnull align 8 dereferenceable(8) %7)
  br i1 %9, label %21, label %10

10:                                               ; preds = %6
  %11 = getelementptr inbounds i8, ptr %0, i64 128
  %12 = load ptr, ptr %7, align 8
  store ptr %12, ptr %11, align 8
  %13 = trunc i32 %1 to i16
  %14 = getelementptr inbounds nuw i8, ptr %0, i64 12
  store i16 %13, ptr %14, align 4
  %15 = getelementptr inbounds i8, ptr %0, i64 664
  %16 = load ptr, ptr %15, align 8
  %.not.i.i = icmp eq ptr %16, null
  br i1 %.not.i.i, label %17, label %_ZNKSt8functionIFvRKPFPN4llvm12FunctionPassEvEEEclES6_.exit

17:                                               ; preds = %10
  call void @_ZSt25__throw_bad_function_callv() #25
  unreachable

_ZNKSt8functionIFvRKPFPN4llvm12FunctionPassEvEEEclES6_.exit: ; preds = %10
  %18 = getelementptr inbounds nuw i8, ptr %0, i64 648
  %19 = getelementptr inbounds i8, ptr %0, i64 672
  %20 = load ptr, ptr %19, align 8
  call void %20(ptr noundef nonnull align 8 dereferenceable(16) %18, ptr noundef nonnull align 8 dereferenceable(8) %7) #24
  br label %21

21:                                               ; preds = %6, %_ZNKSt8functionIFvRKPFPN4llvm12FunctionPassEvEEEclES6_.exit
  ret i1 %9
}